target datalayout = "e-m:e-p270:32:32-p271:32:32-p272:64:64-i64:64-i128:128-f80:128-n8:16:32:64-S128"
target triple = "x86_64-pc-linux-gnu"

%struct.CeltFrame = type { ptr, [4 x ptr], [4 x ptr], ptr, [2 x %struct.CeltBlock], ptr, %struct.OpusDSP, i32, i32, i32, i32, i32, i32, i32, i32, i32, i32, i32, i32, [21 x i32], i32, i32, i32, i32, i32, i32, i32, i32, i32, i32, i32, i32, i32, float, i32, i32, i32, [21 x i32], [21 x i32], [21 x i32], [21 x i32], [21 x i32], [12 x i8] }
%struct.CeltBlock = type { [21 x float], [21 x float], [21 x float], [2 x [21 x float]], [21 x i8], [7 x i8], [2048 x float], [960 x float], [128 x float], [960 x float], i32, [3 x float], i32, [3 x float], i32, [3 x float], float, [12 x i8] }
%struct.OpusDSP = type { ptr, ptr }

; Function Attrs: nounwind uwtable
define void @ff_celt_free(ptr noundef %0) #0 {
  %2 = alloca ptr, align 8
  %3 = alloca ptr, align 8
  %4 = alloca i32, align 4
  %5 = alloca i32, align 4
  store ptr %0, ptr %2, align 8, !tbaa !95
  call void @llvm.lifetime.start.p0(i64 8, ptr %3) #8
  %6 = load ptr, ptr %2, align 8, !tbaa !95
  %7 = load ptr, ptr %6, align 8, !tbaa !4
  store ptr %7, ptr %3, align 8, !tbaa !4
  call void @llvm.lifetime.start.p0(i64 4, ptr %4) #8
  %8 = load ptr, ptr %3, align 8, !tbaa !4
  %9 = icmp ne ptr %8, null
  br i1 %9, label %11, label %10

10:                                               ; preds = %1
  store i32 1, ptr %5, align 4
  br label %31

11:                                               ; preds = %1
  store i32 0, ptr %4, align 4, !tbaa !14
  br label %12

12:                                               ; preds = %22, %11
  %13 = load i32, ptr %4, align 4, !tbaa !14
  %14 = sext i32 %13 to i64
  %15 = icmp ult i64 %14, 4
  br i1 %15, label %16, label %25

16:                                               ; preds = %12
  %17 = load ptr, ptr %3, align 8, !tbaa !4
  %18 = getelementptr inbounds nuw %struct.CeltFrame, ptr %17, i32 0, i32 1
  %19 = load i32, ptr %4, align 4, !tbaa !14
  %20 = sext i32 %19 to i64
  %21 = getelementptr inbounds [4 x ptr], ptr %18, i64 0, i64 %20
  call void @av_tx_uninit(ptr noundef %21)
  br label %22

22:                                               ; preds = %16
  %23 = load i32, ptr %4, align 4, !tbaa !14
  %24 = add nsw i32 %23, 1
  store i32 %24, ptr %4, align 4, !tbaa !14
  br label %12, !llvm.loop !97

25:                                               ; preds = %12
  %26 = load ptr, ptr %3, align 8, !tbaa !4
  %27 = getelementptr inbounds nuw %struct.CeltFrame, ptr %26, i32 0, i32 5
  call void @ff_celt_pvq_uninit(ptr noundef %27)
  %28 = load ptr, ptr %3, align 8, !tbaa !4
  %29 = getelementptr inbounds nuw %struct.CeltFrame, ptr %28, i32 0, i32 3
  call void @av_freep(ptr noundef %29)
  %30 = load ptr, ptr %2, align 8, !tbaa !95
  call void @av_freep(ptr noundef %30)
  store i32 0, ptr %5, align 4
  br label %31

31:                                               ; preds = %25, %10
  call void @llvm.lifetime.end.p0(i64 4, ptr %4) #8
  call void @llvm.lifetime.end.p0(i64 8, ptr %3) #8
  %32 = load i32, ptr %5, align 4
  switch i32 %32, label %34 [
    i32 0, label %33
    i32 1, label %33
  ]

33:                                               ; preds = %31, %31
  ret void

34:                                               ; preds = %31
  unreachable
}