; Function Attrs: nounwind uwtable
define void @ff_celt_free(ptr noundef %0) local_unnamed_addr #0 {
  %2 = load ptr, ptr %0, align 8, !tbaa !88
  %.not = icmp eq ptr %2, null
  br i1 %.not, label %9, label %.preheader

.preheader:                                       ; preds = %1
  %3 = getelementptr inbounds nuw i8, ptr %2, i64 8
  br label %4

4:                                                ; preds = %.preheader, %4
  %indvars.iv = phi i64 [ 0, %.preheader ], [ %indvars.iv.next, %4 ]
  %5 = getelementptr inbounds nuw [4 x ptr], ptr %3, i64 0, i64 %indvars.iv
  tail call void @av_tx_uninit(ptr noundef nonnull %5) #8
  %indvars.iv.next = add nuw nsw i64 %indvars.iv, 1
  %exitcond.not = icmp eq i64 %indvars.iv.next, 4
  br i1 %exitcond.not, label %6, label %4, !llvm.loop !90

6:                                                ; preds = %4
  %7 = getelementptr inbounds nuw i8, ptr %2, i64 33872
  tail call void @ff_celt_pvq_uninit(ptr noundef nonnull %7) #8
  %8 = getelementptr inbounds nuw i8, ptr %2, i64 72
  tail call void @av_freep(ptr noundef nonnull %8) #8
  tail call void @av_freep(ptr noundef nonnull %0) #8
  br label %9

9:                                                ; preds = %1, %6
  ret void
}